target datalayout = "e-m:e-p270:32:32-p271:32:32-p272:64:64-i64:64-i128:128-f80:128-n8:16:32:64-S128"
target triple = "x86_64-pc-linux-gnu"

; Function Attrs: inlinehint nounwind uwtable
define internal ptr @Amap_Not(ptr noundef %0) #4 {
  %2 = alloca ptr, align 8
  store ptr %0, ptr %2, align 8, !tbaa !22
  %3 = load ptr, ptr %2, align 8, !tbaa !22
  %4 = ptrtoint ptr %3 to i64
  %5 = xor i64 %4, 1
  %6 = inttoptr i64 %5 to ptr
  ret ptr %6
}

; Function Attrs: nounwind uwtable
define void @Amap_ManCreateMuxChoices(ptr noundef %0, ptr noundef %1, ptr noundef %2, ptr noundef %3, ptr noundef %4) #0 {
  %6 = alloca ptr, align 8
  %7 = alloca ptr, align 8
  %8 = alloca ptr, align 8
  %9 = alloca ptr, align 8
  %10 = alloca ptr, align 8
  store ptr %0, ptr %6, align 8, !tbaa !3
  store ptr %1, ptr %7, align 8, !tbaa !22
  store ptr %2, ptr %8, align 8, !tbaa !22
  store ptr %3, ptr %9, align 8, !tbaa !22
  store ptr %4, ptr %10, align 8, !tbaa !42
  %11 = load ptr, ptr %6, align 8, !tbaa !3
  %12 = load ptr, ptr %7, align 8, !tbaa !22
  %13 = load ptr, ptr %8, align 8, !tbaa !22
  %14 = load ptr, ptr %9, align 8, !tbaa !22
  %15 = call ptr @Amap_ManCreateMux(ptr noundef %11, ptr noundef %12, ptr noundef %13, ptr noundef %14)
  %16 = load ptr, ptr %10, align 8, !tbaa !42
  %17 = getelementptr inbounds ptr, ptr %16, i64 0
  store ptr %15, ptr %17, align 8, !tbaa !22
  %18 = load ptr, ptr %6, align 8, !tbaa !3
  %19 = load ptr, ptr %7, align 8, !tbaa !22
  %20 = call ptr @Amap_Not(ptr noundef %19)
  %21 = load ptr, ptr %8, align 8, !tbaa !22
  %22 = call ptr @Amap_Not(ptr noundef %21)
  %23 = load ptr, ptr %9, align 8, !tbaa !22
  %24 = call ptr @Amap_ManCreateMux(ptr noundef %18, ptr noundef %20, ptr noundef %22, ptr noundef %23)
  %25 = load ptr, ptr %10, align 8, !tbaa !42
  %26 = getelementptr inbounds ptr, ptr %25, i64 1
  store ptr %24, ptr %26, align 8, !tbaa !22
  %27 = load ptr, ptr %6, align 8, !tbaa !3
  %28 = load ptr, ptr %8, align 8, !tbaa !22
  %29 = load ptr, ptr %7, align 8, !tbaa !22
  %30 = load ptr, ptr %9, align 8, !tbaa !22
  %31 = call ptr @Amap_Not(ptr noundef %30)
  %32 = call ptr @Amap_ManCreateMux(ptr noundef %27, ptr noundef %28, ptr noundef %29, ptr noundef %31)
  %33 = load ptr, ptr %10, align 8, !tbaa !42
  %34 = getelementptr inbounds ptr, ptr %33, i64 2
  store ptr %32, ptr %34, align 8, !tbaa !22
  %35 = load ptr, ptr %6, align 8, !tbaa !3
  %36 = load ptr, ptr %8, align 8, !tbaa !22
  %37 = call ptr @Amap_Not(ptr noundef %36)
  %38 = load ptr, ptr %7, align 8, !tbaa !22
  %39 = call ptr @Amap_Not(ptr noundef %38)
  %40 = load ptr, ptr %9, align 8, !tbaa !22
  %41 = call ptr @Amap_Not(ptr noundef %40)
  %42 = call ptr @Amap_ManCreateMux(ptr noundef %35, ptr noundef %37, ptr noundef %39, ptr noundef %41)
  %43 = load ptr, ptr %10, align 8, !tbaa !42
  %44 = getelementptr inbounds ptr, ptr %43, i64 3
  store ptr %42, ptr %44, align 8, !tbaa !22
  ret void
}