; Function Attrs: nounwind uwtable
define void @Amap_ManCreateMuxChoices(ptr noundef captures(none) %0, ptr noundef %1, ptr noundef %2, ptr noundef %3, ptr noundef writeonly captures(none) initializes((0, 32)) %4) local_unnamed_addr #0 {
  %6 = tail call ptr @Amap_ManCreateMux(ptr noundef %0, ptr noundef %1, ptr noundef %2, ptr noundef %3)
  store ptr %6, ptr %4, align 8, !tbaa !38
  %7 = ptrtoint ptr %1 to i64
  %8 = xor i64 %7, 1
  %9 = inttoptr i64 %8 to ptr
  %10 = ptrtoint ptr %2 to i64
  %11 = xor i64 %10, 1
  %12 = inttoptr i64 %11 to ptr
  %13 = tail call ptr @Amap_ManCreateMux(ptr noundef %0, ptr noundef %9, ptr noundef %12, ptr noundef %3)
  %14 = getelementptr inbounds nuw i8, ptr %4, i64 8
  store ptr %13, ptr %14, align 8, !tbaa !38
  %15 = ptrtoint ptr %3 to i64
  %16 = xor i64 %15, 1
  %17 = inttoptr i64 %16 to ptr
  %18 = tail call ptr @Amap_ManCreateMux(ptr noundef %0, ptr noundef %2, ptr noundef %1, ptr noundef %17)
  %19 = getelementptr inbounds nuw i8, ptr %4, i64 16
  store ptr %18, ptr %19, align 8, !tbaa !38
  %20 = tail call ptr @Amap_ManCreateMux(ptr noundef %0, ptr noundef %12, ptr noundef %9, ptr noundef %17)
  %21 = getelementptr inbounds nuw i8, ptr %4, i64 24
  store ptr %20, ptr %21, align 8, !tbaa !38
  ret void
}